ccopy_reg
_reconstructor
p0
(crequests.cookies
RequestsCookieJar
p1
c__builtin__
object
p2
Ntp3
Rp4
(dp5
S'_now'
p6
I1417668187
sS'_policy'
p7
(icookielib
DefaultCookiePolicy
p8
(dp9
S'strict_rfc2965_unverifiable'
p10
I01
sS'strict_ns_domain'
p11
I0
sS'_allowed_domains'
p12
NsS'rfc2109_as_netscape'
p13
NsS'rfc2965'
p14
I00
sS'strict_domain'
p15
I00
sS'_now'
p16
I1417668187
sS'strict_ns_set_path'
p17
I00
sS'strict_ns_unverifiable'
p18
I00
sS'strict_ns_set_initial_dollar'
p19
I00
sS'hide_cookie2'
p20
I00
sS'_blocked_domains'
p21
(tsS'netscape'
p22
I01
sbsS'_cookies'
p23
(dp24
S'.baidu.com'
p25
(dp26
S'/'
p27
(dp28
S'BDUSS'
p29
(icookielib
Cookie
p30
(dp31
S'comment'
p32
NsS'domain'
p33
S'.baidu.com'
p34
sS'name'
p35
S'BDUSS'
p36
sS'domain_initial_dot'
p37
I01
sS'expires'
p38
I1676868128
sS'value'
p39
S'nQ1MX5GUkg4cjBmU004Vm11OHd3aWtqa2Fnc0hGUExFUGRSY2tGNmlkOGdjNmRVQVFBQUFBJCQAAAAAAAAAAAEAAAAz7EYpam92aXhpYW8AAAAAAAAAAAAAAAAAAAAAAAAAAAAAAAAAAAAAAAAAAAAAAAAAAAAAAAAAAAAAAAAAAAAAAAAAACDmf1Qg5n9Ub'
p40
sS'domain_specified'
p41
I01
sS'_rest'
p42
(dp43
sS'version'
p44
I0
sS'port_specified'
p45
I00
sS'rfc2109'
p46
I00
sS'discard'
p47
I00
sS'path_specified'
p48
I01
sS'path'
p49
S'/'
p50
sS'port'
p51
NsS'comment_url'
p52
NsS'secure'
p53
I00
sbsS'BAIDU_WISE_UID'
p54
(icookielib
Cookie
p55
(dp56
g32
Nsg33
g25
sg35
g54
sg37
I01
sg38
I2362012933
sg39
S'wapp_1415932933778_319'
p57
sg41
I01
sg42
(dp58
sg44
I0
sg45
I00
sg46
I00
sg47
I00
sg48
I01
sg49
g27
sg51
Nsg52
Nsg53
I00
sbsS'SSUDB'
p59
(icookielib
Cookie
p60
(dp61
g32
Nsg33
S'.baidu.com'
p62
sg35
S'SSUDB'
p63
sg37
I01
sg38
I1676868128
sg39
S'nQ1MX5GUkg4cjBmU004Vm11OHd3aWtqa2Fnc0hGUExFUGRSY2tGNmlkOGdjNmRVQVFBQUFBJCQAAAAAAAAAAAEAAAAz7EYpam92aXhpYW8AAAAAAAAAAAAAAAAAAAAAAAAAAAAAAAAAAAAAAAAAAAAAAAAAAAAAAAAAAAAAAAAAAAAAAAAAACDmf1Qg5n9Ub'
p64
sg41
I01
sg42
(dp65
sg44
I0
sg45
I00
sg46
I00
sg47
I00
sg48
I01
sg49
g50
sg51
Nsg52
Nsg53
I00
sbsS'BAIDUID'
p66
(icookielib
Cookie
p67
(dp68
g32
Nsg33
S'.baidu.com'
p69
sg35
g66
sg37
I01
sg38
I1447468940
sg39
S'99F5937267BB2101732AC0B30CA7A074:FG=1'
p70
sg41
I01
sg42
(dp71
sg44
I0
sg45
I00
sg46
I01
sg47
I00
sg48
I01
sg49
g27
sg51
Nsg52
Nsg53
I00
sbsssS'.wappass.baidu.com'
p72
(dp73
g27
(dp74
S'PTOKEN'
p75
(icookielib
Cookie
p76
(dp77
g32
Nsg33
S'.wappass.baidu.com'
p78
sg35
S'PTOKEN'
p79
sg37
I00
sg38
I1676868128
sg39
S'7b99bb3ddfb1d5812cf44391c3bfa8de'
p80
sg41
I01
sg42
(dp81
sg44
I0
sg45
I00
sg46
I00
sg47
I00
sg48
I01
sg49
g50
sg51
Nsg52
Nsg53
I00
sbsS'LASTLOGINTYPE'
p82
(icookielib
Cookie
p83
(dp84
g32
Nsg33
S'.wappass.baidu.com'
p85
sg35
S'LASTLOGINTYPE'
p86
sg37
I00
sg38
I1676868128
sg39
S'0'
p87
sg41
I01
sg42
(dp88
sg44
I0
sg45
I00
sg46
I00
sg47
I00
sg48
I01
sg49
g50
sg51
Nsg52
Nsg53
I00
sbsS'STOKEN'
p89
(icookielib
Cookie
p90
(dp91
g32
Nsg33
S'.wappass.baidu.com'
p92
sg35
S'STOKEN'
p93
sg37
I00
sg38
I1676868128
sg39
S'4dfc6a9341439933d3eb55cfc515f3f63b0509be2e92a8a00b7068207e8b7da7'
p94
sg41
I01
sg42
(dp95
sg44
I0
sg45
I00
sg46
I00
sg47
I00
sg48
I01
sg49
g50
sg51
Nsg52
Nsg53
I00
sbsS'UBI'
p96
(icookielib
Cookie
p97
(dp98
g32
Nsg33
S'.wappass.baidu.com'
p99
sg35
S'UBI'
p100
sg37
I00
sg38
I1676868128
sg39
S'fi_PncwhpxZ%7ETaPjbGIbBY896eIWG7yZM3bWycpNFYBJ4nEkPGWUdiKHvIRpEuKBqs9VcIXJDRSpSfS3yfsZL%7EtFHVjtq1jS88L7PRdyWGPLvfuP3O-1NpK5MWHJSKyrVHl7itJnLjfA9cVIbWrA0YdG2gNMA__'
p101
sg41
I01
sg42
(dp102
S'httponly'
p103
Nssg44
I0
sg45
I00
sg46
I00
sg47
I00
sg48
I01
sg49
g50
sg51
Nsg52
Nsg53
I00
sbsS'BAIDU_WISE_UID'
p104
(icookielib
Cookie
p105
(dp106
g32
Nsg33
S'.wappass.baidu.com'
p107
sg35
S'BAIDU_WISE_UID'
p108
sg37
I00
sg38
I1676868128
sg39
S'wapp_1415932933778_319'
p109
sg41
I01
sg42
(dp110
sg44
I0
sg45
I00
sg46
I00
sg47
I00
sg48
I01
sg49
g50
sg51
Nsg52
Nsg53
I00
sbsssS'tieba.baidu.com'
p111
(dp112
g27
(dp113
S'WIFI_SF'
p114
(icookielib
Cookie
p115
(dp116
g32
Nsg33
S'tieba.baidu.com'
p117
sg35
S'WIFI_SF'
p118
sg37
I00
sg38
I1417720059
sg39
S'1417115259'
p119
sg41
I00
sg42
(dp120
sg44
I0
sg45
I00
sg46
I00
sg47
I00
sg48
I01
sg49
S'/'
p121
sg51
Nsg52
Nsg53
I00
sbsssS'.tieba.baidu.com'
p122
(dp123
g27
(dp124
S'TIEBAUID'
p125
(icookielib
Cookie
p126
(dp127
g32
Nsg33
S'.tieba.baidu.com'
p128
sg35
S'TIEBAUID'
p129
sg37
I00
sg38
I1609430399
sg39
S'1930a1e01f84cf003058cceb'
p130
sg41
I01
sg42
(dp131
sg44
I0
sg45
I00
sg46
I00
sg47
I00
sg48
I01
sg49
g27
sg51
Nsg52
Nsg53
I00
sbsS'IS_NEW_USER'
p132
(icookielib
Cookie
p133
(dp134
g32
Nsg33
g122
sg35
g132
sg37
I00
sg38
I1609430399
sg39
S'8b7f763fb34bc2d89f1ffd36'
p135
sg41
I01
sg42
(dp136
sg44
I0
sg45
I00
sg46
I00
sg47
I00
sg48
I01
sg49
g27
sg51
Nsg52
Nsg53
I00
sbssssb.