ccopy_reg
_reconstructor
p0
(crequests.cookies
RequestsCookieJar
p1
c__builtin__
object
p2
Ntp3
Rp4
(dp5
S'_now'
p6
I1415932948
sS'_policy'
p7
(icookielib
DefaultCookiePolicy
p8
(dp9
S'strict_rfc2965_unverifiable'
p10
I01
sS'strict_ns_domain'
p11
I0
sS'_allowed_domains'
p12
NsS'rfc2109_as_netscape'
p13
NsS'rfc2965'
p14
I00
sS'strict_domain'
p15
I00
sg6
I1415932948
sS'strict_ns_set_path'
p16
I00
sS'strict_ns_unverifiable'
p17
I00
sS'strict_ns_set_initial_dollar'
p18
I00
sS'hide_cookie2'
p19
I00
sS'_blocked_domains'
p20
(tsS'netscape'
p21
I01
sbsS'_cookies'
p22
(dp23
S'.baidu.com'
p24
(dp25
S'/'
p26
(dp27
S'BDUSS'
p28
(icookielib
Cookie
p29
(dp30
S'comment'
p31
NsS'domain'
p32
S'.baidu.com'
p33
sS'name'
p34
g28
sS'domain_initial_dot'
p35
I01
sS'expires'
p36
I1675132940
sS'value'
p37
S'WJKcFhrRWJqTEs2eExvU0hPSU5OMUluV1Z-ZElPN2FCclF6N295RXFBVU0tWXhVQVFBQUFBJCQAAAAAAAAAAAEAAAAz7EYpam92aXhpYW8AAAAAAAAAAAAAAAAAAAAAAAAAAAAAAAAAAAAAAAAAAAAAAAAAAAAAAAAAAAAAAAAAAAAAAAAAAAxsZVQMbGVUZ'
p38
sS'domain_specified'
p39
I01
sS'_rest'
p40
(dp41
sS'version'
p42
I0
sS'port_specified'
p43
I00
sS'rfc2109'
p44
I00
sS'discard'
p45
I00
sS'path_specified'
p46
I01
sS'path'
p47
g26
sS'port'
p48
NsS'comment_url'
p49
NsS'secure'
p50
I00
sbsS'BAIDU_WISE_UID'
p51
(icookielib
Cookie
p52
(dp53
g31
Nsg32
g24
sg34
g51
sg35
I01
sg36
I2362012933
sg37
S'wapp_1415932933778_319'
p54
sg39
I01
sg40
(dp55
sg42
I0
sg43
I00
sg44
I00
sg45
I00
sg46
I01
sg47
g26
sg48
Nsg49
Nsg50
I00
sbsS'SSUDB'
p56
(icookielib
Cookie
p57
(dp58
g31
Nsg32
S'.baidu.com'
p59
sg34
g56
sg35
I01
sg36
I1675132940
sg37
S'WJKcFhrRWJqTEs2eExvU0hPSU5OMUluV1Z-ZElPN2FCclF6N295RXFBVU0tWXhVQVFBQUFBJCQAAAAAAAAAAAEAAAAz7EYpam92aXhpYW8AAAAAAAAAAAAAAAAAAAAAAAAAAAAAAAAAAAAAAAAAAAAAAAAAAAAAAAAAAAAAAAAAAAAAAAAAAAxsZVQMbGVUZ'
p60
sg39
I01
sg40
(dp61
sg42
I0
sg43
I00
sg44
I00
sg45
I00
sg46
I01
sg47
g26
sg48
Nsg49
Nsg50
I00
sbsS'BAIDUID'
p62
(icookielib
Cookie
p63
(dp64
g31
Nsg32
S'.baidu.com'
p65
sg34
g62
sg35
I01
sg36
I1447468940
sg37
S'99F5937267BB2101732AC0B30CA7A074:FG=1'
p66
sg39
I01
sg40
(dp67
sg42
I0
sg43
I00
sg44
I01
sg45
I00
sg46
I01
sg47
g26
sg48
Nsg49
Nsg50
I00
sbsssS'.wappass.baidu.com'
p68
(dp69
g26
(dp70
S'PTOKEN'
p71
(icookielib
Cookie
p72
(dp73
g31
Nsg32
S'.wappass.baidu.com'
p74
sg34
g71
sg35
I00
sg36
I1675132940
sg37
S'7aa032c3a8188a9ba1b6f390b6c8e363'
p75
sg39
I01
sg40
(dp76
sg42
I0
sg43
I00
sg44
I00
sg45
I00
sg46
I01
sg47
g26
sg48
Nsg49
Nsg50
I00
sbsS'BAIDU_WISE_UID'
p77
(icookielib
Cookie
p78
(dp79
g31
Nsg32
S'.wappass.baidu.com'
p80
sg34
S'BAIDU_WISE_UID'
p81
sg35
I00
sg36
I1675132940
sg37
S'wapp_1415932933778_319'
p82
sg39
I01
sg40
(dp83
sg42
I0
sg43
I00
sg44
I00
sg45
I00
sg46
I01
sg47
g26
sg48
Nsg49
Nsg50
I00
sbsS'LASTLOGINTYPE'
p84
(icookielib
Cookie
p85
(dp86
g31
Nsg32
S'.wappass.baidu.com'
p87
sg34
g84
sg35
I00
sg36
I1675132940
sg37
S'0'
p88
sg39
I01
sg40
(dp89
sg42
I0
sg43
I00
sg44
I00
sg45
I00
sg46
I01
sg47
g26
sg48
Nsg49
Nsg50
I00
sbsS'SAVEUSERID'
p90
(icookielib
Cookie
p91
(dp92
g31
Nsg32
S'.wappass.baidu.com'
p93
sg34
g90
sg35
I00
sg36
I1675132940
sg37
S'96bdd2c2f77ab3600330db37'
p94
sg39
I01
sg40
(dp95
sg42
I0
sg43
I00
sg44
I00
sg45
I00
sg46
I01
sg47
g26
sg48
Nsg49
Nsg50
I00
sbsS'STOKEN'
p96
(icookielib
Cookie
p97
(dp98
g31
Nsg32
S'.wappass.baidu.com'
p99
sg34
g96
sg35
I00
sg36
I1675132940
sg37
S'909a8506ca98709897dd23899123d415749a2d4b0cc44356b51e1ccaf894e1a5'
p100
sg39
I01
sg40
(dp101
sg42
I0
sg43
I00
sg44
I00
sg45
I00
sg46
I01
sg47
g26
sg48
Nsg49
Nsg50
I00
sbsS'UBI'
p102
(icookielib
Cookie
p103
(dp104
g31
Nsg32
S'.wappass.baidu.com'
p105
sg34
S'UBI'
p106
sg35
I00
sg36
I1675132940
sg37
S'fi_PncwhpxZ%7ETaKAdOzUcGgo1YQWh4AwK%7EYC1UiOb2yG79AYQ3PcgKVpH6v51lKaWnxdTot32FfSSqsOkZAXWR4MCBxvJSxRDdCp35NmJrylTSnS6IYx0RfDO5WIRVCTlZhUUHQe0o0Bvt-qthps1LZNAvD'
p107
sg39
I01
sg40
(dp108
S'httponly'
p109
Nssg42
I0
sg43
I00
sg44
I00
sg45
I00
sg46
I01
sg47
g26
sg48
Nsg49
Nsg50
I00
sbsssS'tieba.baidu.com'
p110
(dp111
g26
(dp112
S'WIFI_SF'
p113
(icookielib
Cookie
p114
(dp115
g31
Nsg32
g110
sg34
g113
sg35
I00
sg36
I1416537734
sg37
S'1415932934'
p116
sg39
I00
sg40
(dp117
sg42
I0
sg43
I00
sg44
I00
sg45
I00
sg46
I01
sg47
g26
sg48
Nsg49
Nsg50
I00
sbsssS'.tieba.baidu.com'
p118
(dp119
g26
(dp120
S'TIEBAUID'
p121
(icookielib
Cookie
p122
(dp123
g31
Nsg32
S'.tieba.baidu.com'
p124
sg34
S'TIEBAUID'
p125
sg35
I00
sg36
I1609430399
sg37
S'1930a1e01f84cf003058cceb'
p126
sg39
I01
sg40
(dp127
sg42
I0
sg43
I00
sg44
I00
sg45
I00
sg46
I01
sg47
g26
sg48
Nsg49
Nsg50
I00
sbsS'IS_NEW_USER'
p128
(icookielib
Cookie
p129
(dp130
g31
Nsg32
g118
sg34
g128
sg35
I00
sg36
I1609430399
sg37
S'8b7f763fb34bc2d89f1ffd36'
p131
sg39
I01
sg40
(dp132
sg42
I0
sg43
I00
sg44
I00
sg45
I00
sg46
I01
sg47
g26
sg48
Nsg49
Nsg50
I00
sbssssb.