ccopy_reg
_reconstructor
p0
(crequests.cookies
RequestsCookieJar
p1
c__builtin__
object
p2
Ntp3
Rp4
(dp5
S'_now'
p6
I1417605495
sS'_policy'
p7
(icookielib
DefaultCookiePolicy
p8
(dp9
S'strict_rfc2965_unverifiable'
p10
I01
sS'strict_ns_domain'
p11
I0
sS'_allowed_domains'
p12
NsS'rfc2109_as_netscape'
p13
NsS'rfc2965'
p14
I00
sS'strict_domain'
p15
I00
sS'_now'
p16
I1417605495
sS'strict_ns_set_path'
p17
I00
sS'strict_ns_unverifiable'
p18
I00
sS'strict_ns_set_initial_dollar'
p19
I00
sS'hide_cookie2'
p20
I00
sS'_blocked_domains'
p21
(tsS'netscape'
p22
I01
sbsS'_cookies'
p23
(dp24
S'.baidu.com'
p25
(dp26
S'/'
p27
(dp28
S'BDUSS'
p29
(icookielib
Cookie
p30
(dp31
S'comment'
p32
NsS'domain'
p33
S'.baidu.com'
p34
sS'name'
p35
S'BDUSS'
p36
sS'domain_initial_dot'
p37
I01
sS'expires'
p38
I1676315287
sS'value'
p39
S'lpYOWhGMFhLV003TXNMWjVuVFVKWDdiRE1oVkx2UVY0N0h0ME9PRE9maVhBNTlVQVFBQUFBJCQAAAAAAAAAAAEAAAAz7EYpam92aXhpYW8AAAAAAAAAAAAAAAAAAAAAAAAAAAAAAAAAAAAAAAAAAAAAAAAAAAAAAAAAAAAAAAAAAAAAAAAAAJd2d1SXdndUR'
p40
sS'domain_specified'
p41
I01
sS'_rest'
p42
(dp43
sS'version'
p44
I0
sS'port_specified'
p45
I00
sS'rfc2109'
p46
I00
sS'discard'
p47
I00
sS'path_specified'
p48
I01
sS'path'
p49
S'/'
p50
sS'port'
p51
NsS'comment_url'
p52
NsS'secure'
p53
I00
sbsS'BAIDU_WISE_UID'
p54
(icookielib
Cookie
p55
(dp56
g32
Nsg33
g25
sg35
g54
sg37
I01
sg38
I2362012933
sg39
S'wapp_1415932933778_319'
p57
sg41
I01
sg42
(dp58
sg44
I0
sg45
I00
sg46
I00
sg47
I00
sg48
I01
sg49
g27
sg51
Nsg52
Nsg53
I00
sbsS'SSUDB'
p59
(icookielib
Cookie
p60
(dp61
g32
Nsg33
S'.baidu.com'
p62
sg35
S'SSUDB'
p63
sg37
I01
sg38
I1676315287
sg39
S'lpYOWhGMFhLV003TXNMWjVuVFVKWDdiRE1oVkx2UVY0N0h0ME9PRE9maVhBNTlVQVFBQUFBJCQAAAAAAAAAAAEAAAAz7EYpam92aXhpYW8AAAAAAAAAAAAAAAAAAAAAAAAAAAAAAAAAAAAAAAAAAAAAAAAAAAAAAAAAAAAAAAAAAAAAAAAAAJd2d1SXdndUR'
p64
sg41
I01
sg42
(dp65
sg44
I0
sg45
I00
sg46
I00
sg47
I00
sg48
I01
sg49
g50
sg51
Nsg52
Nsg53
I00
sbsS'BAIDUID'
p66
(icookielib
Cookie
p67
(dp68
g32
Nsg33
S'.baidu.com'
p69
sg35
g66
sg37
I01
sg38
I1447468940
sg39
S'99F5937267BB2101732AC0B30CA7A074:FG=1'
p70
sg41
I01
sg42
(dp71
sg44
I0
sg45
I00
sg46
I01
sg47
I00
sg48
I01
sg49
g27
sg51
Nsg52
Nsg53
I00
sbsssS'.wappass.baidu.com'
p72
(dp73
g27
(dp74
S'PTOKEN'
p75
(icookielib
Cookie
p76
(dp77
g32
Nsg33
S'.wappass.baidu.com'
p78
sg35
S'PTOKEN'
p79
sg37
I00
sg38
I1676315287
sg39
S'93b52a76a4307bebc51ccbf1d96daac0'
p80
sg41
I01
sg42
(dp81
sg44
I0
sg45
I00
sg46
I00
sg47
I00
sg48
I01
sg49
g50
sg51
Nsg52
Nsg53
I00
sbsS'BAIDU_WISE_UID'
p82
(icookielib
Cookie
p83
(dp84
g32
Nsg33
S'.wappass.baidu.com'
p85
sg35
S'BAIDU_WISE_UID'
p86
sg37
I00
sg38
I1676315287
sg39
S'wapp_1415932933778_319'
p87
sg41
I01
sg42
(dp88
sg44
I0
sg45
I00
sg46
I00
sg47
I00
sg48
I01
sg49
g50
sg51
Nsg52
Nsg53
I00
sbsS'LASTLOGINTYPE'
p89
(icookielib
Cookie
p90
(dp91
g32
Nsg33
S'.wappass.baidu.com'
p92
sg35
S'LASTLOGINTYPE'
p93
sg37
I00
sg38
I1676315287
sg39
S'0'
p94
sg41
I01
sg42
(dp95
sg44
I0
sg45
I00
sg46
I00
sg47
I00
sg48
I01
sg49
g50
sg51
Nsg52
Nsg53
I00
sbsS'SAVEUSERID'
p96
(icookielib
Cookie
p97
(dp98
g32
Nsg33
S'.wappass.baidu.com'
p99
sg35
S'SAVEUSERID'
p100
sg37
I00
sg38
I1676315287
sg39
S'96bdd2c2f77ab3600330db37'
p101
sg41
I01
sg42
(dp102
sg44
I0
sg45
I00
sg46
I00
sg47
I00
sg48
I01
sg49
g50
sg51
Nsg52
Nsg53
I00
sbsS'STOKEN'
p103
(icookielib
Cookie
p104
(dp105
g32
Nsg33
S'.wappass.baidu.com'
p106
sg35
S'STOKEN'
p107
sg37
I00
sg38
I1676315287
sg39
S'2848c4f59b4fcedc6abc20d74db14dfcda0933d6330d5a9e0081917c5fefad29'
p108
sg41
I01
sg42
(dp109
sg44
I0
sg45
I00
sg46
I00
sg47
I00
sg48
I01
sg49
g50
sg51
Nsg52
Nsg53
I00
sbsS'UBI'
p110
(icookielib
Cookie
p111
(dp112
g32
Nsg33
S'.wappass.baidu.com'
p113
sg35
S'UBI'
p114
sg37
I00
sg38
I1676315287
sg39
S'fi_PncwhpxZ%7ETaNj9XrpDhgKoQQviRxGFdgAZyhVE3xyurFj18oPNdtCIbmTiwcRL9fjXBoPkEkSLk0wB9P3UJdEiElde3jqT11CXbN7jekc4B%7E%7EYi%7EmMBhnqvwetGa9g%7E3SiLj6SyTtw3hdwrlMJ4A8RQ8'
p115
sg41
I01
sg42
(dp116
S'httponly'
p117
Nssg44
I0
sg45
I00
sg46
I00
sg47
I00
sg48
I01
sg49
g50
sg51
Nsg52
Nsg53
I00
sbsssS'tieba.baidu.com'
p118
(dp119
g27
(dp120
S'WIFI_SF'
p121
(icookielib
Cookie
p122
(dp123
g32
Nsg33
S'tieba.baidu.com'
p124
sg35
S'WIFI_SF'
p125
sg37
I00
sg38
I1417720059
sg39
S'1417115259'
p126
sg41
I00
sg42
(dp127
sg44
I0
sg45
I00
sg46
I00
sg47
I00
sg48
I01
sg49
g50
sg51
Nsg52
Nsg53
I00
sbsssS'.tieba.baidu.com'
p128
(dp129
g27
(dp130
S'TIEBAUID'
p131
(icookielib
Cookie
p132
(dp133
g32
Nsg33
S'.tieba.baidu.com'
p134
sg35
S'TIEBAUID'
p135
sg37
I00
sg38
I1609430399
sg39
S'1930a1e01f84cf003058cceb'
p136
sg41
I01
sg42
(dp137
sg44
I0
sg45
I00
sg46
I00
sg47
I00
sg48
I01
sg49
g27
sg51
Nsg52
Nsg53
I00
sbsS'IS_NEW_USER'
p138
(icookielib
Cookie
p139
(dp140
g32
Nsg33
g128
sg35
g138
sg37
I00
sg38
I1609430399
sg39
S'8b7f763fb34bc2d89f1ffd36'
p141
sg41
I01
sg42
(dp142
sg44
I0
sg45
I00
sg46
I00
sg47
I00
sg48
I01
sg49
g27
sg51
Nsg52
Nsg53
I00
sbssssb.